
a.out:     file format elf32-littlearm
a.out


Disassembly of section .init:

00008294 <_init>:
_init():
    8294:	b508      	push	{r3, lr}
    8296:	f000 f841 	bl	831c <call_gmon_start>
    829a:	bf00      	nop
    829c:	bd08      	pop	{r3, pc}

Disassembly of section .plt:

000082a0 <.plt>:
    82a0:	e52de004 	push	{lr}		; (str lr, [sp, #-4]!)
    82a4:	e59fe004 	ldr	lr, [pc, #4]	; 82b0 <_init+0x1c>
    82a8:	e08fe00e 	add	lr, pc, lr
    82ac:	e5bef008 	ldr	pc, [lr, #8]!
    82b0:	00008d50 	andeq	r8, r0, r0, asr sp
    82b4:	e28fc600 	add	ip, pc, #0
    82b8:	e28cca08 	add	ip, ip, #32768	; 0x8000
    82bc:	e5bcfd50 	ldr	pc, [ip, #3408]!	; 0xd50
    82c0:	4778      	bx	pc
    82c2:	46c0      	nop			; (mov r8, r8)
    82c4:	e28fc600 	add	ip, pc, #0
    82c8:	e28cca08 	add	ip, ip, #32768	; 0x8000
    82cc:	e5bcfd44 	ldr	pc, [ip, #3396]!	; 0xd44
    82d0:	e28fc600 	add	ip, pc, #0
    82d4:	e28cca08 	add	ip, ip, #32768	; 0x8000
    82d8:	e5bcfd3c 	ldr	pc, [ip, #3388]!	; 0xd3c

Disassembly of section .text:

000082dc <main>:
main():
    82dc:	f641 70f8 	movw	r0, #8184	; 0x1ff8
    82e0:	4770      	bx	lr
    82e2:	bf00      	nop

000082e4 <_start>:
_start():
    82e4:	f04f 0b00 	mov.w	fp, #0
    82e8:	f04f 0e00 	mov.w	lr, #0
    82ec:	f85d 1b04 	ldr.w	r1, [sp], #4
    82f0:	466a      	mov	r2, sp
    82f2:	f84d 2d04 	str.w	r2, [sp, #-4]!
    82f6:	f84d 0d04 	str.w	r0, [sp, #-4]!
    82fa:	f8df c014 	ldr.w	ip, [pc, #20]	; 8310 <_start+0x2c>
    82fe:	f84d cd04 	str.w	ip, [sp, #-4]!
    8302:	4804      	ldr	r0, [pc, #16]	; (8314 <_start+0x30>)
    8304:	4b04      	ldr	r3, [pc, #16]	; (8318 <_start+0x34>)
    8306:	f7ff efd6 	blx	82b4 <_init+0x20>
    830a:	f7ff efe2 	blx	82d0 <_init+0x3c>
    830e:	83a10000 			; <UNDEFINED> instruction: 0x83a10000
    8312:	82dd0000 	sbcshi	r0, sp, #0
    8316:	835d0000 	cmphi	sp, #0
	...

0000831c <call_gmon_start>:
call_gmon_start():
    831c:	4b03      	ldr	r3, [pc, #12]	; (832c <call_gmon_start+0x10>)
    831e:	4a04      	ldr	r2, [pc, #16]	; (8330 <call_gmon_start+0x14>)
    8320:	447b      	add	r3, pc
    8322:	589b      	ldr	r3, [r3, r2]
    8324:	b10b      	cbz	r3, 832a <call_gmon_start+0xe>
    8326:	f7ff bfcb 	b.w	82c0 <_init+0x2c>
    832a:	4770      	bx	lr
    832c:	00008cdc 	ldrdeq	r8, [r0], -ip
    8330:	00000018 	andeq	r0, r0, r8, lsl r0

00008334 <__do_global_dtors_aux>:
__do_global_dtors_aux():
    8334:	4b02      	ldr	r3, [pc, #8]	; (8340 <__do_global_dtors_aux+0xc>)
    8336:	781a      	ldrb	r2, [r3, #0]
    8338:	b90a      	cbnz	r2, 833e <__do_global_dtors_aux+0xa>
    833a:	2201      	movs	r2, #1
    833c:	701a      	strb	r2, [r3, #0]
    833e:	4770      	bx	lr
    8340:	00011024 	andeq	r1, r1, r4, lsr #32

00008344 <frame_dummy>:
frame_dummy():
    8344:	4803      	ldr	r0, [pc, #12]	; (8354 <frame_dummy+0x10>)
    8346:	b508      	push	{r3, lr}
    8348:	6803      	ldr	r3, [r0, #0]
    834a:	b113      	cbz	r3, 8352 <frame_dummy+0xe>
    834c:	4b02      	ldr	r3, [pc, #8]	; (8358 <frame_dummy+0x14>)
    834e:	b103      	cbz	r3, 8352 <frame_dummy+0xe>
    8350:	4798      	blx	r3
    8352:	bd08      	pop	{r3, pc}
    8354:	00010f14 	andeq	r0, r1, r4, lsl pc
    8358:	00000000 	andeq	r0, r0, r0

0000835c <__libc_csu_init>:
__libc_csu_init():
    835c:	e92d 43f8 	stmdb	sp!, {r3, r4, r5, r6, r7, r8, r9, lr}
    8360:	4606      	mov	r6, r0
    8362:	4d0d      	ldr	r5, [pc, #52]	; (8398 <__libc_csu_init+0x3c>)
    8364:	460f      	mov	r7, r1
    8366:	f8df 9034 	ldr.w	r9, [pc, #52]	; 839c <__libc_csu_init+0x40>
    836a:	4690      	mov	r8, r2
    836c:	447d      	add	r5, pc
    836e:	f7ff ff91 	bl	8294 <_init>
    8372:	44f9      	add	r9, pc
    8374:	ebc5 0909 	rsb	r9, r5, r9
    8378:	ea5f 09a9 	movs.w	r9, r9, asr #2
    837c:	d00a      	beq.n	8394 <__libc_csu_init+0x38>
    837e:	3d04      	subs	r5, #4
    8380:	2400      	movs	r4, #0
    8382:	f855 3f04 	ldr.w	r3, [r5, #4]!
    8386:	4630      	mov	r0, r6
    8388:	4639      	mov	r1, r7
    838a:	4642      	mov	r2, r8
    838c:	3401      	adds	r4, #1
    838e:	4798      	blx	r3
    8390:	454c      	cmp	r4, r9
    8392:	d1f6      	bne.n	8382 <__libc_csu_init+0x26>
    8394:	e8bd 83f8 	ldmia.w	sp!, {r3, r4, r5, r6, r7, r8, r9, pc}
    8398:	00008b9c 	muleq	r0, ip, fp
    839c:	00008b9a 	muleq	r0, sl, fp

000083a0 <__libc_csu_fini>:
__libc_csu_fini():
    83a0:	4770      	bx	lr
    83a2:	bf00      	nop

Disassembly of section .fini:

000083a4 <_fini>:
_fini():
    83a4:	b508      	push	{r3, lr}
    83a6:	bf00      	nop
    83a8:	bd08      	pop	{r3, pc}
